target datalayout = "e-m:e-p270:32:32-p271:32:32-p272:64:64-i64:64-i128:128-f80:128-n8:16:32:64-S128"
target triple = "x86_64-pc-linux-gnu"

%"struct.google::protobuf::internal::ExtensionInfo" = type { ptr, i32, i8, i8, i8, %union.anon, ptr }
%union.anon = type { %"struct.google::protobuf::internal::ExtensionInfo::EnumValidityCheck" }
%"struct.google::protobuf::internal::ExtensionInfo::EnumValidityCheck" = type { ptr, ptr }

; Function Attrs: inlinehint mustprogress nounwind uwtable
define linkonce_odr hidden noundef i32 @_ZN6google8protobuf8internal14WireFormatLite14GetTagWireTypeEj(i32 noundef %0) #14 comdat align 2 {
  %2 = alloca i32, align 4
  store i32 %0, ptr %2, align 4, !tbaa !10
  %3 = load i32, ptr %2, align 4, !tbaa !10
  %4 = and i32 %3, 7
  ret i32 %4
}

; Function Attrs: inlinehint mustprogress nounwind uwtable
define linkonce_odr hidden noundef i32 @_ZN6google8protobuf8internal14WireFormatLite17GetTagFieldNumberEj(i32 noundef %0) #14 comdat align 2 {
  %2 = alloca i32, align 4
  store i32 %0, ptr %2, align 4, !tbaa !10
  %3 = load i32, ptr %2, align 4, !tbaa !10
  %4 = lshr i32 %3, 3
  ret i32 %4
}

; Function Attrs: mustprogress uwtable
define hidden noundef zeroext i1 @_ZN6google8protobuf8internal12ExtensionSet24FindExtensionInfoFromTagEjPNS1_15ExtensionFinderEPiPNS1_13ExtensionInfoEPb(ptr noundef nonnull align 8 dereferenceable(24) %0, i32 noundef %1, ptr noundef %2, ptr noundef %3, ptr noundef %4, ptr noundef %5) #6 align 2 {
  %7 = alloca ptr, align 8
  %8 = alloca i32, align 4
  %9 = alloca ptr, align 8
  %10 = alloca ptr, align 8
  %11 = alloca ptr, align 8
  %12 = alloca ptr, align 8
  %13 = alloca i32, align 4
  store ptr %0, ptr %7, align 8, !tbaa !43
  store i32 %1, ptr %8, align 4, !tbaa !10
  store ptr %2, ptr %9, align 8, !tbaa !3
  store ptr %3, ptr %10, align 8, !tbaa !67
  store ptr %4, ptr %11, align 8, !tbaa !12
  store ptr %5, ptr %12, align 8, !tbaa !245
  %14 = load ptr, ptr %7, align 8
  %15 = load i32, ptr %8, align 4, !tbaa !10
  %16 = call noundef i32 @_ZN6google8protobuf8internal14WireFormatLite17GetTagFieldNumberEj(i32 noundef %15)
  %17 = load ptr, ptr %10, align 8, !tbaa !67
  store i32 %16, ptr %17, align 4, !tbaa !10
  call void @llvm.lifetime.start.p0(i64 4, ptr %13) #3
  %18 = load i32, ptr %8, align 4, !tbaa !10
  %19 = call noundef i32 @_ZN6google8protobuf8internal14WireFormatLite14GetTagWireTypeEj(i32 noundef %18)
  store i32 %19, ptr %13, align 4, !tbaa !401
  %20 = load i32, ptr %13, align 4, !tbaa !401
  %21 = load ptr, ptr %10, align 8, !tbaa !67
  %22 = load i32, ptr %21, align 4, !tbaa !10
  %23 = load ptr, ptr %9, align 8, !tbaa !3
  %24 = load ptr, ptr %11, align 8, !tbaa !12
  %25 = load ptr, ptr %12, align 8, !tbaa !245
  %26 = call noundef zeroext i1 @_ZNK6google8protobuf8internal12ExtensionSet32FindExtensionInfoFromFieldNumberEiiPNS1_15ExtensionFinderEPNS1_13ExtensionInfoEPb(ptr noundef nonnull align 8 dereferenceable(24) %14, i32 noundef %20, i32 noundef %22, ptr noundef %23, ptr noundef %24, ptr noundef %25)
  call void @llvm.lifetime.end.p0(i64 4, ptr %13) #3
  ret i1 %26
}

; Function Attrs: mustprogress nounwind uwtable
define linkonce_odr hidden void @_ZN6google8protobuf8internal13ExtensionInfoC2Ev(ptr noundef nonnull align 8 dereferenceable(40) %0) unnamed_addr #4 comdat align 2 {
  %2 = alloca ptr, align 8
  store ptr %0, ptr %2, align 8, !tbaa !12
  %3 = load ptr, ptr %2, align 8
  %4 = getelementptr inbounds nuw %"struct.google::protobuf::internal::ExtensionInfo", ptr %3, i32 0, i32 0
  store ptr null, ptr %4, align 8, !tbaa !27
  %5 = getelementptr inbounds nuw %"struct.google::protobuf::internal::ExtensionInfo", ptr %3, i32 0, i32 1
  store i32 0, ptr %5, align 8, !tbaa !29
  %6 = getelementptr inbounds nuw %"struct.google::protobuf::internal::ExtensionInfo", ptr %3, i32 0, i32 2
  store i8 0, ptr %6, align 4, !tbaa !32
  %7 = getelementptr inbounds nuw %"struct.google::protobuf::internal::ExtensionInfo", ptr %3, i32 0, i32 3
  store i8 0, ptr %7, align 1, !tbaa !33
  %8 = getelementptr inbounds nuw %"struct.google::protobuf::internal::ExtensionInfo", ptr %3, i32 0, i32 4
  store i8 0, ptr %8, align 2, !tbaa !34
  %9 = getelementptr inbounds nuw %"struct.google::protobuf::internal::ExtensionInfo", ptr %3, i32 0, i32 5
  call void @llvm.memset.p0.i64(ptr align 8 %9, i8 0, i64 16, i1 false)
  %10 = getelementptr inbounds nuw %"struct.google::protobuf::internal::ExtensionInfo", ptr %3, i32 0, i32 6
  store ptr null, ptr %10, align 8, !tbaa !35
  ret void
}

; Function Attrs: mustprogress uwtable
define hidden noundef zeroext i1 @_ZN6google8protobuf8internal12ExtensionSet10ParseFieldEjPNS0_2io16CodedInputStreamEPNS1_15ExtensionFinderEPNS1_12FieldSkipperE(ptr noundef nonnull align 8 dereferenceable(24) %0, i32 noundef %1, ptr noundef %2, ptr noundef %3, ptr noundef %4) #6 align 2 {
  %6 = alloca i1, align 1
  %7 = alloca ptr, align 8
  %8 = alloca i32, align 4
  %9 = alloca ptr, align 8
  %10 = alloca ptr, align 8
  %11 = alloca ptr, align 8
  %12 = alloca i32, align 4
  %13 = alloca i8, align 1
  %14 = alloca %"struct.google::protobuf::internal::ExtensionInfo", align 8
  %15 = alloca i32, align 4
  store ptr %0, ptr %7, align 8, !tbaa !43
  store i32 %1, ptr %8, align 4, !tbaa !10
  store ptr %2, ptr %9, align 8, !tbaa !404
  store ptr %3, ptr %10, align 8, !tbaa !3
  store ptr %4, ptr %11, align 8, !tbaa !406
  %16 = load ptr, ptr %7, align 8
  call void @llvm.lifetime.start.p0(i64 4, ptr %12) #3
  call void @llvm.lifetime.start.p0(i64 1, ptr %13) #3
  call void @llvm.lifetime.start.p0(i64 40, ptr %14) #3
  call void @_ZN6google8protobuf8internal13ExtensionInfoC2Ev(ptr noundef nonnull align 8 dereferenceable(40) %14)
  %17 = load i32, ptr %8, align 4, !tbaa !10
  %18 = load ptr, ptr %10, align 8, !tbaa !3
  %19 = call noundef zeroext i1 @_ZN6google8protobuf8internal12ExtensionSet24FindExtensionInfoFromTagEjPNS1_15ExtensionFinderEPiPNS1_13ExtensionInfoEPb(ptr noundef nonnull align 8 dereferenceable(24) %16, i32 noundef %17, ptr noundef %18, ptr noundef %12, ptr noundef %14, ptr noundef %13)
  br i1 %19, label %28, label %20

20:                                               ; preds = %5
  %21 = load ptr, ptr %11, align 8, !tbaa !406
  %22 = load ptr, ptr %9, align 8, !tbaa !404
  %23 = load i32, ptr %8, align 4, !tbaa !10
  %24 = load ptr, ptr %21, align 8, !tbaa !37
  %25 = getelementptr inbounds ptr, ptr %24, i64 2
  %26 = load ptr, ptr %25, align 8
  %27 = call noundef zeroext i1 %26(ptr noundef nonnull align 8 dereferenceable(8) %21, ptr noundef %22, i32 noundef %23)
  store i1 %27, ptr %6, align 1
  store i32 1, ptr %15, align 4
  br label %35

28:                                               ; preds = %5
  %29 = load i32, ptr %12, align 4, !tbaa !10
  %30 = load i8, ptr %13, align 1, !tbaa !21, !range !30, !noundef !31
  %31 = trunc i8 %30 to i1
  %32 = load ptr, ptr %9, align 8, !tbaa !404
  %33 = load ptr, ptr %11, align 8, !tbaa !406
  %34 = call noundef zeroext i1 @_ZN6google8protobuf8internal12ExtensionSet27ParseFieldWithExtensionInfoEibRKNS1_13ExtensionInfoEPNS0_2io16CodedInputStreamEPNS1_12FieldSkipperE(ptr noundef nonnull align 8 dereferenceable(24) %16, i32 noundef %29, i1 noundef zeroext %31, ptr noundef nonnull align 8 dereferenceable(40) %14, ptr noundef %32, ptr noundef %33)
  store i1 %34, ptr %6, align 1
  store i32 1, ptr %15, align 4
  br label %35

35:                                               ; preds = %28, %20
  call void @llvm.lifetime.end.p0(i64 40, ptr %14) #3
  call void @llvm.lifetime.end.p0(i64 1, ptr %13) #3
  call void @llvm.lifetime.end.p0(i64 4, ptr %12) #3
  %36 = load i1, ptr %6, align 1
  ret i1 %36
}