; Function Attrs: mustprogress uwtable
define hidden noundef zeroext i1 @_ZN6google8protobuf8internal12ExtensionSet10ParseFieldEjPNS0_2io16CodedInputStreamEPNS1_15ExtensionFinderEPNS1_12FieldSkipperE(ptr noundef nonnull align 8 captures(none) dereferenceable(24) %0, i32 noundef %1, ptr noundef %2, ptr noundef %3, ptr noundef %4) local_unnamed_addr #8 align 2 {
  %6 = alloca i8, align 1
  %7 = alloca %"struct.google::protobuf::internal::ExtensionInfo", align 8
  call void @llvm.lifetime.start.p0(i64 1, ptr nonnull %6) #30
  call void @llvm.lifetime.start.p0(i64 40, ptr nonnull %7) #30
  %8 = getelementptr inbounds nuw i8, ptr %7, i64 16
  call void @llvm.memset.p0.i64(ptr noundef nonnull align 8 dereferenceable(40) %7, i8 0, i64 15, i1 false)
  call void @llvm.memset.p0.i64(ptr noundef nonnull align 8 dereferenceable(24) %8, i8 0, i64 24, i1 false)
  %9 = lshr i32 %1, 3
  %10 = and i32 %1, 7
  %11 = call noundef zeroext i1 @_ZNK6google8protobuf8internal12ExtensionSet32FindExtensionInfoFromFieldNumberEiiPNS1_15ExtensionFinderEPNS1_13ExtensionInfoEPb(ptr nonnull readnone align 8 poison, i32 noundef %10, i32 noundef %9, ptr noundef %3, ptr noundef nonnull %7, ptr noundef nonnull %6)
  br i1 %11, label %17, label %12

12:                                               ; preds = %5
  %13 = load ptr, ptr %4, align 8, !tbaa !54
  %14 = getelementptr inbounds nuw i8, ptr %13, i64 16
  %15 = load ptr, ptr %14, align 8
  %16 = call noundef zeroext i1 %15(ptr noundef nonnull align 8 dereferenceable(8) %4, ptr noundef %2, i32 noundef %1)
  br label %21

17:                                               ; preds = %5
  %18 = load i8, ptr %6, align 1, !tbaa !39, !range !104, !noundef !80
  %19 = trunc nuw i8 %18 to i1
  %20 = call noundef zeroext i1 @_ZN6google8protobuf8internal12ExtensionSet27ParseFieldWithExtensionInfoEibRKNS1_13ExtensionInfoEPNS0_2io16CodedInputStreamEPNS1_12FieldSkipperE(ptr noundef nonnull align 8 dereferenceable(24) %0, i32 noundef %9, i1 noundef zeroext %19, ptr noundef nonnull align 8 dereferenceable(40) %7, ptr noundef %2, ptr noundef %4)
  br label %21

21:                                               ; preds = %17, %12
  %.0 = phi i1 [ %20, %17 ], [ %16, %12 ]
  call void @llvm.lifetime.end.p0(i64 40, ptr nonnull %7) #30
  call void @llvm.lifetime.end.p0(i64 1, ptr nonnull %6) #30
  ret i1 %.0
}